; Function Attrs: mustprogress nounwind uwtable
define internal fastcc void @_ZN4node9inspector12_GLOBAL__N_114FormatHostPortERKNSt7__cxx1112basic_stringIcSt11char_traitsIcESaIcEEEi(ptr noalias align 8 %agg.result, ptr noundef nonnull align 8 dereferenceable(32) %host, i32 noundef %port) unnamed_addr #0 {
entry:
  %url = alloca %"class.std::__cxx11::basic_ostringstream", align 8
  %call = tail call noundef i64 @_ZNKSt7__cxx1112basic_stringIcSt11char_traitsIcESaIcEE4findEcm(ptr noundef nonnull align 8 dereferenceable(32) %host, i8 noundef signext 58, i64 noundef 0) #19
  %cmp.not = icmp eq i64 %call, -1
  call void @_ZNSt7__cxx1119basic_ostringstreamIcSt11char_traitsIcESaIcEEC1Ev(ptr noundef nonnull align 8 dereferenceable(112) %url) #19
  br i1 %cmp.not, label %if.end6.critedge, label %if.then

if.then:                                          ; preds = %entry
  %call1 = call noundef nonnull align 8 dereferenceable(8) ptr @_ZStlsISt11char_traitsIcEERSt13basic_ostreamIcT_ES5_c(ptr noundef nonnull align 8 dereferenceable(8) %url, i8 noundef signext 91) #19
  %call2 = call noundef nonnull align 8 dereferenceable(8) ptr @_ZStlsIcSt11char_traitsIcESaIcEERSt13basic_ostreamIT_T0_ES7_RKNSt7__cxx1112basic_stringIS4_S5_T1_EE(ptr noundef nonnull align 8 dereferenceable(8) %url, ptr noundef nonnull align 8 dereferenceable(32) %host) #19
  %call5 = call noundef nonnull align 8 dereferenceable(8) ptr @_ZStlsISt11char_traitsIcEERSt13basic_ostreamIcT_ES5_c(ptr noundef nonnull align 8 dereferenceable(8) %url, i8 noundef signext 93) #19
  br label %if.end6

if.end6.critedge:                                 ; preds = %entry
  %call2.c = call noundef nonnull align 8 dereferenceable(8) ptr @_ZStlsIcSt11char_traitsIcESaIcEERSt13basic_ostreamIT_T0_ES7_RKNSt7__cxx1112basic_stringIS4_S5_T1_EE(ptr noundef nonnull align 8 dereferenceable(8) %url, ptr noundef nonnull align 8 dereferenceable(32) %host) #19
  br label %if.end6

if.end6:                                          ; preds = %if.end6.critedge, %if.then
  %call7 = call noundef nonnull align 8 dereferenceable(8) ptr @_ZStlsISt11char_traitsIcEERSt13basic_ostreamIcT_ES5_c(ptr noundef nonnull align 8 dereferenceable(8) %url, i8 noundef signext 58) #19
  %call8 = call noundef nonnull align 8 dereferenceable(8) ptr @_ZNSolsEi(ptr noundef nonnull align 8 dereferenceable(8) %call7, i32 noundef %port) #19
  call void @_ZNKSt7__cxx1119basic_ostringstreamIcSt11char_traitsIcESaIcEE3strEv(ptr sret(%"class.std::__cxx11::basic_string") align 8 %agg.result, ptr noundef nonnull align 8 dereferenceable(112) %url) #19
  call void @_ZNSt7__cxx1119basic_ostringstreamIcSt11char_traitsIcESaIcEED1Ev(ptr noundef nonnull align 8 dereferenceable(112) %url) #19
  ret void
}